target datalayout = "e-m:e-p270:32:32-p271:32:32-p272:64:64-i64:64-i128:128-f80:128-n8:16:32:64-S128"
target triple = "x86_64-pc-linux-gnu"

%"class.arrow_vendored::double_conversion::Bignum" = type { i16, i16, [128 x i32] }

; Function Attrs: mustprogress nounwind uwtable
define noundef nonnull align 4 dereferenceable(4) ptr @_ZN14arrow_vendored17double_conversion6Bignum8RawBigitEi(ptr noundef nonnull align 4 dereferenceable(516) %0, i32 noundef %1) #0 align 2 {
  %3 = alloca ptr, align 8
  %4 = alloca i32, align 4
  store ptr %0, ptr %3, align 8, !tbaa !3
  store i32 %1, ptr %4, align 4, !tbaa !8
  %5 = load ptr, ptr %3, align 8
  %6 = getelementptr inbounds nuw %"class.arrow_vendored::double_conversion::Bignum", ptr %5, i32 0, i32 2
  %7 = load i32, ptr %4, align 4, !tbaa !8
  %8 = sext i32 %7 to i64
  %9 = getelementptr inbounds [128 x i32], ptr %6, i64 0, i64 %8
  ret ptr %9
}

; Function Attrs: mustprogress nounwind uwtable
define void @_ZN14arrow_vendored17double_conversion6Bignum15BigitsShiftLeftEi(ptr noundef nonnull align 4 dereferenceable(516) %0, i32 noundef %1) #0 align 2 {
  %3 = alloca ptr, align 8
  %4 = alloca i32, align 4
  %5 = alloca i32, align 4
  %6 = alloca i32, align 4
  %7 = alloca i32, align 4
  store ptr %0, ptr %3, align 8, !tbaa !3
  store i32 %1, ptr %4, align 4, !tbaa !8
  %8 = load ptr, ptr %3, align 8
  call void @llvm.lifetime.start.p0(i64 4, ptr %5) #6
  store i32 0, ptr %5, align 4, !tbaa !8
  call void @llvm.lifetime.start.p0(i64 4, ptr %6) #6
  store i32 0, ptr %6, align 4, !tbaa !8
  br label %9

9:                                                ; preds = %34, %2
  %10 = load i32, ptr %6, align 4, !tbaa !8
  %11 = getelementptr inbounds nuw %"class.arrow_vendored::double_conversion::Bignum", ptr %8, i32 0, i32 0
  %12 = load i16, ptr %11, align 4, !tbaa !12
  %13 = sext i16 %12 to i32
  %14 = icmp slt i32 %10, %13
  br i1 %14, label %16, label %15

15:                                               ; preds = %9
  call void @llvm.lifetime.end.p0(i64 4, ptr %6) #6
  br label %37

16:                                               ; preds = %9
  call void @llvm.lifetime.start.p0(i64 4, ptr %7) #6
  %17 = load i32, ptr %6, align 4, !tbaa !8
  %18 = call noundef nonnull align 4 dereferenceable(4) ptr @_ZN14arrow_vendored17double_conversion6Bignum8RawBigitEi(ptr noundef nonnull align 4 dereferenceable(516) %8, i32 noundef %17)
  %19 = load i32, ptr %18, align 4, !tbaa !8
  %20 = load i32, ptr %4, align 4, !tbaa !8
  %21 = sub nsw i32 28, %20
  %22 = lshr i32 %19, %21
  store i32 %22, ptr %7, align 4, !tbaa !8
  %23 = load i32, ptr %6, align 4, !tbaa !8
  %24 = call noundef nonnull align 4 dereferenceable(4) ptr @_ZN14arrow_vendored17double_conversion6Bignum8RawBigitEi(ptr noundef nonnull align 4 dereferenceable(516) %8, i32 noundef %23)
  %25 = load i32, ptr %24, align 4, !tbaa !8
  %26 = load i32, ptr %4, align 4, !tbaa !8
  %27 = shl i32 %25, %26
  %28 = load i32, ptr %5, align 4, !tbaa !8
  %29 = add i32 %27, %28
  %30 = and i32 %29, 268435455
  %31 = load i32, ptr %6, align 4, !tbaa !8
  %32 = call noundef nonnull align 4 dereferenceable(4) ptr @_ZN14arrow_vendored17double_conversion6Bignum8RawBigitEi(ptr noundef nonnull align 4 dereferenceable(516) %8, i32 noundef %31)
  store i32 %30, ptr %32, align 4, !tbaa !8
  %33 = load i32, ptr %7, align 4, !tbaa !8
  store i32 %33, ptr %5, align 4, !tbaa !8
  call void @llvm.lifetime.end.p0(i64 4, ptr %7) #6
  br label %34

34:                                               ; preds = %16
  %35 = load i32, ptr %6, align 4, !tbaa !8
  %36 = add nsw i32 %35, 1
  store i32 %36, ptr %6, align 4, !tbaa !8
  br label %9, !llvm.loop !44

37:                                               ; preds = %15
  %38 = load i32, ptr %5, align 4, !tbaa !8
  %39 = icmp ne i32 %38, 0
  br i1 %39, label %40, label %49

40:                                               ; preds = %37
  %41 = load i32, ptr %5, align 4, !tbaa !8
  %42 = getelementptr inbounds nuw %"class.arrow_vendored::double_conversion::Bignum", ptr %8, i32 0, i32 0
  %43 = load i16, ptr %42, align 4, !tbaa !12
  %44 = sext i16 %43 to i32
  %45 = call noundef nonnull align 4 dereferenceable(4) ptr @_ZN14arrow_vendored17double_conversion6Bignum8RawBigitEi(ptr noundef nonnull align 4 dereferenceable(516) %8, i32 noundef %44)
  store i32 %41, ptr %45, align 4, !tbaa !8
  %46 = getelementptr inbounds nuw %"class.arrow_vendored::double_conversion::Bignum", ptr %8, i32 0, i32 0
  %47 = load i16, ptr %46, align 4, !tbaa !12
  %48 = add i16 %47, 1
  store i16 %48, ptr %46, align 4, !tbaa !12
  br label %49

49:                                               ; preds = %40, %37
  call void @llvm.lifetime.end.p0(i64 4, ptr %5) #6
  ret void
}