; Function Attrs: mustprogress nofree norecurse nosync nounwind memory(argmem: readwrite) uwtable
define void @_ZN14arrow_vendored17double_conversion6Bignum15BigitsShiftLeftEi(ptr noundef nonnull align 4 captures(none) dereferenceable(516) %0, i32 noundef %1) local_unnamed_addr #4 align 2 {
  %3 = load i16, ptr %0, align 4, !tbaa !3
  %4 = icmp sgt i16 %3, 0
  br i1 %4, label %.lr.ph, label %._crit_edge.thread

.lr.ph:                                           ; preds = %2
  %wide.trip.count = zext nneg i16 %3 to i64
  %5 = getelementptr inbounds nuw i8, ptr %0, i64 4
  %6 = sub nsw i32 28, %1
  br label %7

._crit_edge:                                      ; preds = %7
  %.not = icmp eq i32 %10, 0
  br i1 %.not, label %._crit_edge.thread, label %14

7:                                                ; preds = %.lr.ph, %7
  %indvars.iv = phi i64 [ 0, %.lr.ph ], [ %indvars.iv.next, %7 ]
  %.014 = phi i32 [ 0, %.lr.ph ], [ %10, %7 ]
  %8 = getelementptr inbounds nuw [128 x i32], ptr %5, i64 0, i64 %indvars.iv
  %9 = load i32, ptr %8, align 4, !tbaa !9
  %10 = lshr i32 %9, %6
  %11 = shl i32 %9, %1
  %12 = add i32 %11, %.014
  %13 = and i32 %12, 268435455
  store i32 %13, ptr %8, align 4, !tbaa !9
  %indvars.iv.next = add nuw nsw i64 %indvars.iv, 1
  %exitcond.not = icmp eq i64 %indvars.iv.next, %wide.trip.count
  br i1 %exitcond.not, label %._crit_edge, label %7, !llvm.loop !24

14:                                               ; preds = %._crit_edge
  %15 = getelementptr inbounds nuw i8, ptr %0, i64 4
  %16 = zext nneg i16 %3 to i64
  %17 = getelementptr inbounds nuw [128 x i32], ptr %15, i64 0, i64 %16
  store i32 %10, ptr %17, align 4, !tbaa !9
  %18 = add nuw i16 %3, 1
  store i16 %18, ptr %0, align 4, !tbaa !3
  br label %._crit_edge.thread

._crit_edge.thread:                               ; preds = %2, %14, %._crit_edge
  ret void
}